target datalayout = "e-m:e-p270:32:32-p271:32:32-p272:64:64-i64:64-i128:128-f80:128-n8:16:32:64-S128"
target triple = "x86_64-pc-linux-gnu"

%struct.AVFormatContext = type { ptr, ptr, ptr, ptr, ptr, i32, i32, ptr, i32, ptr, i32, ptr, ptr, i64, i64, i64, i32, i32, i32, i64, i64, ptr, i32, i32, ptr, i32, i32, i32, i32, ptr, i64, i32, i32, %struct.AVIOInterruptCB, i32, i32, i32, i32, i64, i32, i32, i32, i32, i32, i32, i32, i32, i32, i32, i32, i32, i64, i32, i32, i32, i32, i32, ptr, ptr, ptr, ptr, i32, ptr, ptr, ptr, ptr, i32, ptr, ptr, i64, ptr, ptr, ptr, i64 }
%struct.AVIOInterruptCB = type { ptr, ptr }
%struct.AVStream = type { ptr, i32, i32, ptr, ptr, %struct.AVRational, i64, i64, i64, i32, i32, %struct.AVRational, ptr, %struct.AVRational, %struct.AVPacket, i32, %struct.AVRational, i32 }
%struct.AVPacket = type { ptr, i64, i64, ptr, i32, i32, i32, ptr, i32, i64, i64, ptr, ptr, %struct.AVRational }
%struct.AVRational = type { i32, i32 }
%struct.PayloadContext = type { i32, i32, ptr, ptr, ptr, ptr, i32, i32, i32, i32 }
%struct.AVCodecParameters = type { i32, i32, i32, ptr, i32, ptr, i32, i32, i64, i32, i32, i32, i32, i32, i32, %struct.AVRational, %struct.AVRational, i32, i32, i32, i32, i32, i32, i32, %struct.AVChannelLayout, i32, i32, i32, i32, i32, i32 }
%struct.AVChannelLayout = type { i32, i32, %union.anon, ptr }
%union.anon = type { i64 }

@.str.1 = private unnamed_addr constant [11 x i8] c"framesize:\00", align 1
@.str.2 = private unnamed_addr constant [6 x i8] c"fmtp:\00", align 1

; Function Attrs: cold nounwind optsize uwtable
define internal i32 @hevc_parse_sdp_line(ptr noundef %0, i32 noundef %1, ptr noundef %2, ptr noundef %3) #0 {
  %5 = alloca i32, align 4
  %6 = alloca ptr, align 8
  %7 = alloca i32, align 4
  %8 = alloca ptr, align 8
  %9 = alloca ptr, align 8
  %10 = alloca ptr, align 8
  %11 = alloca ptr, align 8
  %12 = alloca ptr, align 8
  %13 = alloca i32, align 4
  %14 = alloca i32, align 4
  %15 = alloca i32, align 4
  store ptr %0, ptr %6, align 8, !tbaa !4
  store i32 %1, ptr %7, align 4, !tbaa !9
  store ptr %2, ptr %8, align 8, !tbaa !11
  store ptr %3, ptr %9, align 8, !tbaa !13
  call void @llvm.lifetime.start.p0(i64 8, ptr %10) #9
  call void @llvm.lifetime.start.p0(i64 8, ptr %11) #9
  call void @llvm.lifetime.start.p0(i64 8, ptr %12) #9
  %16 = load ptr, ptr %9, align 8, !tbaa !13
  store ptr %16, ptr %12, align 8, !tbaa !13
  %17 = load i32, ptr %7, align 4, !tbaa !9
  %18 = icmp slt i32 %17, 0
  br i1 %18, label %19, label %20

19:                                               ; preds = %4
  store i32 0, ptr %5, align 4
  store i32 1, ptr %13, align 4
  br label %179

20:                                               ; preds = %4
  %21 = load ptr, ptr %6, align 8, !tbaa !4
  %22 = getelementptr inbounds nuw %struct.AVFormatContext, ptr %21, i32 0, i32 7
  %23 = load ptr, ptr %22, align 8, !tbaa !15
  %24 = load i32, ptr %7, align 4, !tbaa !9
  %25 = sext i32 %24 to i64
  %26 = getelementptr inbounds ptr, ptr %23, i64 %25
  %27 = load ptr, ptr %26, align 8, !tbaa !30
  store ptr %27, ptr %10, align 8, !tbaa !30
  %28 = load ptr, ptr %10, align 8, !tbaa !30
  %29 = getelementptr inbounds nuw %struct.AVStream, ptr %28, i32 0, i32 3
  %30 = load ptr, ptr %29, align 8, !tbaa !32
  store ptr %30, ptr %11, align 8, !tbaa !39
  %31 = load ptr, ptr %12, align 8, !tbaa !13
  %32 = call i32 @av_strstart(ptr noundef %31, ptr noundef @.str.1, ptr noundef %12)
  %33 = icmp ne i32 %32, 0
  br i1 %33, label %34, label %37

34:                                               ; preds = %20
  %35 = load ptr, ptr %11, align 8, !tbaa !39
  %36 = load ptr, ptr %12, align 8, !tbaa !13
  call void @ff_h264_parse_framesize(ptr noundef %35, ptr noundef %36)
  br label %178

37:                                               ; preds = %20
  %38 = load ptr, ptr %12, align 8, !tbaa !13
  %39 = call i32 @av_strstart(ptr noundef %38, ptr noundef @.str.2, ptr noundef %12)
  %40 = icmp ne i32 %39, 0
  br i1 %40, label %41, label %177

41:                                               ; preds = %37
  call void @llvm.lifetime.start.p0(i64 4, ptr %14) #9
  %42 = load ptr, ptr %6, align 8, !tbaa !4
  %43 = load ptr, ptr %10, align 8, !tbaa !30
  %44 = load ptr, ptr %8, align 8, !tbaa !11
  %45 = load ptr, ptr %12, align 8, !tbaa !13
  %46 = call i32 @ff_parse_fmtp(ptr noundef %42, ptr noundef %43, ptr noundef %44, ptr noundef %45, ptr noundef @hevc_sdp_parse_fmtp_config)
  store i32 %46, ptr %14, align 4, !tbaa !9
  %47 = load ptr, ptr %8, align 8, !tbaa !11
  %48 = getelementptr inbounds nuw %struct.PayloadContext, ptr %47, i32 0, i32 8
  %49 = load i32, ptr %48, align 8, !tbaa !40
  %50 = icmp ne i32 %49, 0
  br i1 %50, label %66, label %51

51:                                               ; preds = %41
  %52 = load ptr, ptr %8, align 8, !tbaa !11
  %53 = getelementptr inbounds nuw %struct.PayloadContext, ptr %52, i32 0, i32 6
  %54 = load i32, ptr %53, align 8, !tbaa !42
  %55 = icmp ne i32 %54, 0
  br i1 %55, label %66, label %56

56:                                               ; preds = %51
  %57 = load ptr, ptr %8, align 8, !tbaa !11
  %58 = getelementptr inbounds nuw %struct.PayloadContext, ptr %57, i32 0, i32 7
  %59 = load i32, ptr %58, align 4, !tbaa !43
  %60 = icmp ne i32 %59, 0
  br i1 %60, label %66, label %61

61:                                               ; preds = %56
  %62 = load ptr, ptr %8, align 8, !tbaa !11
  %63 = getelementptr inbounds nuw %struct.PayloadContext, ptr %62, i32 0, i32 9
  %64 = load i32, ptr %63, align 4, !tbaa !44
  %65 = icmp ne i32 %64, 0
  br i1 %65, label %66, label %175

66:                                               ; preds = %61, %56, %51, %41
  %67 = load ptr, ptr %8, align 8, !tbaa !11
  %68 = getelementptr inbounds nuw %struct.PayloadContext, ptr %67, i32 0, i32 8
  %69 = load i32, ptr %68, align 8, !tbaa !40
  %70 = load ptr, ptr %8, align 8, !tbaa !11
  %71 = getelementptr inbounds nuw %struct.PayloadContext, ptr %70, i32 0, i32 6
  %72 = load i32, ptr %71, align 8, !tbaa !42
  %73 = add nsw i32 %69, %72
  %74 = load ptr, ptr %8, align 8, !tbaa !11
  %75 = getelementptr inbounds nuw %struct.PayloadContext, ptr %74, i32 0, i32 7
  %76 = load i32, ptr %75, align 4, !tbaa !43
  %77 = add nsw i32 %73, %76
  %78 = load ptr, ptr %8, align 8, !tbaa !11
  %79 = getelementptr inbounds nuw %struct.PayloadContext, ptr %78, i32 0, i32 9
  %80 = load i32, ptr %79, align 4, !tbaa !44
  %81 = add nsw i32 %77, %80
  %82 = load ptr, ptr %11, align 8, !tbaa !39
  %83 = getelementptr inbounds nuw %struct.AVCodecParameters, ptr %82, i32 0, i32 4
  store i32 %81, ptr %83, align 8, !tbaa !45
  %84 = load ptr, ptr %11, align 8, !tbaa !39
  %85 = load ptr, ptr %11, align 8, !tbaa !39
  %86 = getelementptr inbounds nuw %struct.AVCodecParameters, ptr %85, i32 0, i32 4
  %87 = load i32, ptr %86, align 8, !tbaa !45
  %88 = call i32 @ff_alloc_extradata(ptr noundef %84, i32 noundef %87)
  store i32 %88, ptr %14, align 4, !tbaa !9
  %89 = icmp sge i32 %88, 0
  br i1 %89, label %90, label %158

90:                                               ; preds = %66
  call void @llvm.lifetime.start.p0(i64 4, ptr %15) #9
  store i32 0, ptr %15, align 4, !tbaa !9
  %91 = load ptr, ptr %11, align 8, !tbaa !39
  %92 = getelementptr inbounds nuw %struct.AVCodecParameters, ptr %91, i32 0, i32 3
  %93 = load ptr, ptr %92, align 8, !tbaa !48
  %94 = load i32, ptr %15, align 4, !tbaa !9
  %95 = sext i32 %94 to i64
  %96 = getelementptr inbounds i8, ptr %93, i64 %95
  %97 = load ptr, ptr %8, align 8, !tbaa !11
  %98 = getelementptr inbounds nuw %struct.PayloadContext, ptr %97, i32 0, i32 4
  %99 = load ptr, ptr %98, align 8, !tbaa !49
  %100 = load ptr, ptr %8, align 8, !tbaa !11
  %101 = getelementptr inbounds nuw %struct.PayloadContext, ptr %100, i32 0, i32 8
  %102 = load i32, ptr %101, align 8, !tbaa !40
  %103 = sext i32 %102 to i64
  call void @llvm.memcpy.p0.p0.i64(ptr align 1 %96, ptr align 1 %99, i64 %103, i1 false)
  %104 = load ptr, ptr %8, align 8, !tbaa !11
  %105 = getelementptr inbounds nuw %struct.PayloadContext, ptr %104, i32 0, i32 8
  %106 = load i32, ptr %105, align 8, !tbaa !40
  %107 = load i32, ptr %15, align 4, !tbaa !9
  %108 = add nsw i32 %107, %106
  store i32 %108, ptr %15, align 4, !tbaa !9
  %109 = load ptr, ptr %11, align 8, !tbaa !39
  %110 = getelementptr inbounds nuw %struct.AVCodecParameters, ptr %109, i32 0, i32 3
  %111 = load ptr, ptr %110, align 8, !tbaa !48
  %112 = load i32, ptr %15, align 4, !tbaa !9
  %113 = sext i32 %112 to i64
  %114 = getelementptr inbounds i8, ptr %111, i64 %113
  %115 = load ptr, ptr %8, align 8, !tbaa !11
  %116 = getelementptr inbounds nuw %struct.PayloadContext, ptr %115, i32 0, i32 2
  %117 = load ptr, ptr %116, align 8, !tbaa !50
  %118 = load ptr, ptr %8, align 8, !tbaa !11
  %119 = getelementptr inbounds nuw %struct.PayloadContext, ptr %118, i32 0, i32 6
  %120 = load i32, ptr %119, align 8, !tbaa !42
  %121 = sext i32 %120 to i64
  call void @llvm.memcpy.p0.p0.i64(ptr align 1 %114, ptr align 1 %117, i64 %121, i1 false)
  %122 = load ptr, ptr %8, align 8, !tbaa !11
  %123 = getelementptr inbounds nuw %struct.PayloadContext, ptr %122, i32 0, i32 6
  %124 = load i32, ptr %123, align 8, !tbaa !42
  %125 = load i32, ptr %15, align 4, !tbaa !9
  %126 = add nsw i32 %125, %124
  store i32 %126, ptr %15, align 4, !tbaa !9
  %127 = load ptr, ptr %11, align 8, !tbaa !39
  %128 = getelementptr inbounds nuw %struct.AVCodecParameters, ptr %127, i32 0, i32 3
  %129 = load ptr, ptr %128, align 8, !tbaa !48
  %130 = load i32, ptr %15, align 4, !tbaa !9
  %131 = sext i32 %130 to i64
  %132 = getelementptr inbounds i8, ptr %129, i64 %131
  %133 = load ptr, ptr %8, align 8, !tbaa !11
  %134 = getelementptr inbounds nuw %struct.PayloadContext, ptr %133, i32 0, i32 3
  %135 = load ptr, ptr %134, align 8, !tbaa !51
  %136 = load ptr, ptr %8, align 8, !tbaa !11
  %137 = getelementptr inbounds nuw %struct.PayloadContext, ptr %136, i32 0, i32 7
  %138 = load i32, ptr %137, align 4, !tbaa !43
  %139 = sext i32 %138 to i64
  call void @llvm.memcpy.p0.p0.i64(ptr align 1 %132, ptr align 1 %135, i64 %139, i1 false)
  %140 = load ptr, ptr %8, align 8, !tbaa !11
  %141 = getelementptr inbounds nuw %struct.PayloadContext, ptr %140, i32 0, i32 7
  %142 = load i32, ptr %141, align 4, !tbaa !43
  %143 = load i32, ptr %15, align 4, !tbaa !9
  %144 = add nsw i32 %143, %142
  store i32 %144, ptr %15, align 4, !tbaa !9
  %145 = load ptr, ptr %11, align 8, !tbaa !39
  %146 = getelementptr inbounds nuw %struct.AVCodecParameters, ptr %145, i32 0, i32 3
  %147 = load ptr, ptr %146, align 8, !tbaa !48
  %148 = load i32, ptr %15, align 4, !tbaa !9
  %149 = sext i32 %148 to i64
  %150 = getelementptr inbounds i8, ptr %147, i64 %149
  %151 = load ptr, ptr %8, align 8, !tbaa !11
  %152 = getelementptr inbounds nuw %struct.PayloadContext, ptr %151, i32 0, i32 5
  %153 = load ptr, ptr %152, align 8, !tbaa !52
  %154 = load ptr, ptr %8, align 8, !tbaa !11
  %155 = getelementptr inbounds nuw %struct.PayloadContext, ptr %154, i32 0, i32 9
  %156 = load i32, ptr %155, align 4, !tbaa !44
  %157 = sext i32 %156 to i64
  call void @llvm.memcpy.p0.p0.i64(ptr align 1 %150, ptr align 1 %153, i64 %157, i1 false)
  call void @llvm.lifetime.end.p0(i64 4, ptr %15) #9
  br label %158

158:                                              ; preds = %90, %66
  %159 = load ptr, ptr %8, align 8, !tbaa !11
  %160 = getelementptr inbounds nuw %struct.PayloadContext, ptr %159, i32 0, i32 4
  call void @av_freep(ptr noundef %160)
  %161 = load ptr, ptr %8, align 8, !tbaa !11
  %162 = getelementptr inbounds nuw %struct.PayloadContext, ptr %161, i32 0, i32 2
  call void @av_freep(ptr noundef %162)
  %163 = load ptr, ptr %8, align 8, !tbaa !11
  %164 = getelementptr inbounds nuw %struct.PayloadContext, ptr %163, i32 0, i32 3
  call void @av_freep(ptr noundef %164)
  %165 = load ptr, ptr %8, align 8, !tbaa !11
  %166 = getelementptr inbounds nuw %struct.PayloadContext, ptr %165, i32 0, i32 5
  call void @av_freep(ptr noundef %166)
  %167 = load ptr, ptr %8, align 8, !tbaa !11
  %168 = getelementptr inbounds nuw %struct.PayloadContext, ptr %167, i32 0, i32 8
  store i32 0, ptr %168, align 8, !tbaa !40
  %169 = load ptr, ptr %8, align 8, !tbaa !11
  %170 = getelementptr inbounds nuw %struct.PayloadContext, ptr %169, i32 0, i32 6
  store i32 0, ptr %170, align 8, !tbaa !42
  %171 = load ptr, ptr %8, align 8, !tbaa !11
  %172 = getelementptr inbounds nuw %struct.PayloadContext, ptr %171, i32 0, i32 7
  store i32 0, ptr %172, align 4, !tbaa !43
  %173 = load ptr, ptr %8, align 8, !tbaa !11
  %174 = getelementptr inbounds nuw %struct.PayloadContext, ptr %173, i32 0, i32 9
  store i32 0, ptr %174, align 4, !tbaa !44
  br label %175

175:                                              ; preds = %158, %61
  %176 = load i32, ptr %14, align 4, !tbaa !9
  store i32 %176, ptr %5, align 4
  store i32 1, ptr %13, align 4
  call void @llvm.lifetime.end.p0(i64 4, ptr %14) #9
  br label %179

177:                                              ; preds = %37
  br label %178

178:                                              ; preds = %177, %34
  store i32 0, ptr %5, align 4
  store i32 1, ptr %13, align 4
  br label %179

179:                                              ; preds = %178, %175, %19
  call void @llvm.lifetime.end.p0(i64 8, ptr %12) #9
  call void @llvm.lifetime.end.p0(i64 8, ptr %11) #9
  call void @llvm.lifetime.end.p0(i64 8, ptr %10) #9
  %180 = load i32, ptr %5, align 4
  ret i32 %180
}