; Function Attrs: cold nounwind optsize uwtable
define internal i32 @hevc_parse_sdp_line(ptr noundef %0, i32 noundef %1, ptr noundef %2, ptr noundef %3) #0 {
  %5 = alloca ptr, align 8
  call void @llvm.lifetime.start.p0(i64 8, ptr nonnull %5) #9
  store ptr %3, ptr %5, align 8, !tbaa !4
  %6 = icmp slt i32 %1, 0
  br i1 %6, label %83, label %7

7:                                                ; preds = %4
  %8 = getelementptr inbounds nuw i8, ptr %0, i64 48
  %9 = load ptr, ptr %8, align 8, !tbaa !9
  %10 = zext nneg i32 %1 to i64
  %11 = getelementptr inbounds nuw ptr, ptr %9, i64 %10
  %12 = load ptr, ptr %11, align 8, !tbaa !25
  %13 = getelementptr inbounds nuw i8, ptr %12, i64 16
  %14 = load ptr, ptr %13, align 8, !tbaa !27
  %15 = call i32 @av_strstart(ptr noundef %3, ptr noundef nonnull @.str.1, ptr noundef nonnull %5) #9
  %.not = icmp eq i32 %15, 0
  %16 = load ptr, ptr %5, align 8, !tbaa !4
  br i1 %.not, label %18, label %17

17:                                               ; preds = %7
  call void @ff_h264_parse_framesize(ptr noundef %14, ptr noundef %16) #9
  br label %83

18:                                               ; preds = %7
  %19 = call i32 @av_strstart(ptr noundef %16, ptr noundef nonnull @.str.2, ptr noundef nonnull %5) #9
  %.not53 = icmp eq i32 %19, 0
  br i1 %.not53, label %83, label %20

20:                                               ; preds = %18
  %21 = load ptr, ptr %5, align 8, !tbaa !4
  %22 = call i32 @ff_parse_fmtp(ptr noundef nonnull %0, ptr noundef nonnull %12, ptr noundef %2, ptr noundef %21, ptr noundef nonnull @hevc_sdp_parse_fmtp_config) #9
  %23 = getelementptr inbounds nuw i8, ptr %2, i64 48
  %24 = load i32, ptr %23, align 8, !tbaa !34
  %.not54 = icmp eq i32 %24, 0
  %25 = getelementptr inbounds nuw i8, ptr %2, i64 40
  %26 = load i32, ptr %25, align 8, !tbaa !36
  %.not55 = icmp eq i32 %26, 0
  %or.cond = select i1 %.not54, i1 %.not55, i1 false
  br i1 %or.cond, label %27, label %._crit_edge

27:                                               ; preds = %20
  %28 = getelementptr inbounds nuw i8, ptr %2, i64 44
  %29 = load i32, ptr %28, align 4, !tbaa !37
  %.not56 = icmp eq i32 %29, 0
  br i1 %.not56, label %30, label %._crit_edge

30:                                               ; preds = %27
  %31 = getelementptr inbounds nuw i8, ptr %2, i64 52
  %32 = load i32, ptr %31, align 4, !tbaa !38
  %.not57 = icmp eq i32 %32, 0
  br i1 %.not57, label %83, label %._crit_edge

._crit_edge:                                      ; preds = %20, %30, %27
  %33 = phi i32 [ 0, %30 ], [ 0, %27 ], [ %26, %20 ]
  %34 = getelementptr inbounds nuw i8, ptr %2, i64 40
  %35 = add nsw i32 %33, %24
  %36 = getelementptr inbounds nuw i8, ptr %2, i64 44
  %37 = load i32, ptr %36, align 4, !tbaa !37
  %38 = add nsw i32 %35, %37
  %39 = getelementptr inbounds nuw i8, ptr %2, i64 52
  %40 = load i32, ptr %39, align 4, !tbaa !38
  %41 = add nsw i32 %38, %40
  %42 = getelementptr inbounds nuw i8, ptr %14, i64 24
  store i32 %41, ptr %42, align 8, !tbaa !39
  %43 = call i32 @ff_alloc_extradata(ptr noundef %14, i32 noundef %41) #9
  %44 = icmp sgt i32 %43, -1
  br i1 %44, label %45, label %78

45:                                               ; preds = %._crit_edge
  %46 = getelementptr inbounds nuw i8, ptr %14, i64 16
  %47 = load ptr, ptr %46, align 8, !tbaa !42
  %48 = getelementptr inbounds nuw i8, ptr %2, i64 24
  %49 = load ptr, ptr %48, align 8, !tbaa !43
  %50 = load i32, ptr %23, align 8, !tbaa !34
  %51 = sext i32 %50 to i64
  call void @llvm.memcpy.p0.p0.i64(ptr align 1 %47, ptr align 1 %49, i64 %51, i1 false)
  %52 = load i32, ptr %23, align 8, !tbaa !34
  %53 = load ptr, ptr %46, align 8, !tbaa !42
  %54 = sext i32 %52 to i64
  %55 = getelementptr inbounds i8, ptr %53, i64 %54
  %56 = getelementptr inbounds nuw i8, ptr %2, i64 8
  %57 = load ptr, ptr %56, align 8, !tbaa !44
  %58 = load i32, ptr %34, align 8, !tbaa !36
  %59 = sext i32 %58 to i64
  call void @llvm.memcpy.p0.p0.i64(ptr align 1 %55, ptr align 1 %57, i64 %59, i1 false)
  %60 = load i32, ptr %34, align 8, !tbaa !36
  %61 = add nsw i32 %60, %52
  %62 = load ptr, ptr %46, align 8, !tbaa !42
  %63 = sext i32 %61 to i64
  %64 = getelementptr inbounds i8, ptr %62, i64 %63
  %65 = getelementptr inbounds nuw i8, ptr %2, i64 16
  %66 = load ptr, ptr %65, align 8, !tbaa !45
  %67 = load i32, ptr %36, align 4, !tbaa !37
  %68 = sext i32 %67 to i64
  call void @llvm.memcpy.p0.p0.i64(ptr align 1 %64, ptr align 1 %66, i64 %68, i1 false)
  %69 = load i32, ptr %36, align 4, !tbaa !37
  %70 = add nsw i32 %69, %61
  %71 = load ptr, ptr %46, align 8, !tbaa !42
  %72 = sext i32 %70 to i64
  %73 = getelementptr inbounds i8, ptr %71, i64 %72
  %74 = getelementptr inbounds nuw i8, ptr %2, i64 32
  %75 = load ptr, ptr %74, align 8, !tbaa !46
  %76 = load i32, ptr %39, align 4, !tbaa !38
  %77 = sext i32 %76 to i64
  call void @llvm.memcpy.p0.p0.i64(ptr align 1 %73, ptr align 1 %75, i64 %77, i1 false)
  br label %78

78:                                               ; preds = %45, %._crit_edge
  %79 = getelementptr inbounds nuw i8, ptr %2, i64 24
  call void @av_freep(ptr noundef nonnull %79) #9
  %80 = getelementptr inbounds nuw i8, ptr %2, i64 8
  call void @av_freep(ptr noundef nonnull %80) #9
  %81 = getelementptr inbounds nuw i8, ptr %2, i64 16
  call void @av_freep(ptr noundef nonnull %81) #9
  %82 = getelementptr inbounds nuw i8, ptr %2, i64 32
  call void @av_freep(ptr noundef nonnull %82) #9
  call void @llvm.memset.p0.i64(ptr noundef nonnull align 8 dereferenceable(16) %34, i8 0, i64 16, i1 false)
  br label %83

83:                                               ; preds = %17, %18, %30, %78, %4
  %.0 = phi i32 [ 0, %4 ], [ %43, %78 ], [ %22, %30 ], [ 0, %18 ], [ 0, %17 ]
  call void @llvm.lifetime.end.p0(i64 8, ptr nonnull %5) #9
  ret i32 %.0
}